; Function Attrs: nounwind uwtable
define hidden void @zim_DOMNodeList_getIterator(ptr noundef %0, ptr noundef %1) local_unnamed_addr #0 {
  %3 = getelementptr inbounds i8, ptr %0, i64 44
  %4 = load i32, ptr %3, align 4
  %.not = icmp eq i32 %4, 0
  br i1 %.not, label %.critedge, label %5

5:                                                ; preds = %2
  tail call void @zend_wrong_parameters_none_error() #3
  br label %8

.critedge:                                        ; preds = %2
  %6 = getelementptr inbounds i8, ptr %0, i64 32
  %7 = tail call i32 @zend_create_internal_iterator_zval(ptr noundef %1, ptr noundef nonnull %6) #3
  br label %8

8:                                                ; preds = %5, %.critedge
  ret void
}